target datalayout = "e-m:e-p270:32:32-p271:32:32-p272:64:64-i64:64-i128:128-f80:128-n8:16:32:64-S128"
target triple = "x86_64-pc-linux-gnu"

%class.QString = type { %struct.QArrayDataPointer }
%struct.QArrayDataPointer = type { ptr, ptr, i64 }
%class.BluetoothHciSummaryDialog = type { %class.WiresharkDialog.base, ptr, %struct._bluetooth_hci_summary_tapinfo_t, %class.QMenu, ptr, ptr, ptr, ptr, ptr, ptr, ptr, ptr, ptr, ptr, ptr, ptr, ptr, ptr }
%class.WiresharkDialog.base = type <{ %class.GeometryStateDialog, ptr, i8, [7 x i8], %class.QString, %class.QList, i32, i8 }>
%class.GeometryStateDialog = type { %class.QDialog, %class.QString, ptr }
%class.QDialog = type { %class.QWidget }
%class.QWidget = type { %class.QObject, %class.QPaintDevice.base, ptr }
%class.QObject = type { ptr, %class.QScopedPointer }
%class.QScopedPointer = type { ptr }
%class.QPaintDevice.base = type <{ ptr, i16 }>
%class.QList = type { %struct.QArrayDataPointer.0 }
%struct.QArrayDataPointer.0 = type { ptr, ptr, i64 }
%struct._bluetooth_hci_summary_tapinfo_t = type { ptr, ptr, ptr }
%class.QMenu = type { %class.QWidget }
%class.Ui_BluetoothHciSummaryDialog = type { ptr, ptr, ptr, ptr, ptr, ptr, ptr, ptr, ptr, ptr, ptr, ptr, ptr, ptr, ptr, ptr, ptr, ptr }

; Function Attrs: mustprogress null_pointer_is_valid sspstrong uwtable
define void @_ZN25BluetoothHciSummaryDialog18tableItemCollapsedEP15QTreeWidgetItem(ptr noundef align 8 dereferenceable_or_null(328) %0, ptr noundef %1) #0 align 2 {
  %3 = alloca ptr, align 8
  %4 = alloca ptr, align 8
  %5 = alloca i32, align 4
  store ptr %0, ptr %3, align 8
  store ptr %1, ptr %4, align 8
  %6 = load ptr, ptr %3, align 8
  call void @llvm.lifetime.start.p0(i64 4, ptr %5) #26
  store i32 0, ptr %5, align 4
  br label %7

7:                                                ; preds = %22, %2
  %8 = load i32, ptr %5, align 4
  %9 = getelementptr inbounds nuw %class.BluetoothHciSummaryDialog, ptr %6, i32 0, i32 1
  %10 = load ptr, ptr %9, align 8
  %11 = getelementptr inbounds nuw %class.Ui_BluetoothHciSummaryDialog, ptr %10, i32 0, i32 7
  %12 = load ptr, ptr %11, align 8
  %13 = call noundef i32 @_ZNK11QTreeWidget11columnCountEv(ptr noundef align 8 dereferenceable_or_null(40) %12)
  %14 = icmp slt i32 %8, %13
  br i1 %14, label %16, label %15

15:                                               ; preds = %7
  call void @llvm.lifetime.end.p0(i64 4, ptr %5) #26
  br label %25

16:                                               ; preds = %7
  %17 = getelementptr inbounds nuw %class.BluetoothHciSummaryDialog, ptr %6, i32 0, i32 1
  %18 = load ptr, ptr %17, align 8
  %19 = getelementptr inbounds nuw %class.Ui_BluetoothHciSummaryDialog, ptr %18, i32 0, i32 7
  %20 = load ptr, ptr %19, align 8
  %21 = load i32, ptr %5, align 4
  call void @_ZN9QTreeView22resizeColumnToContentsEi(ptr noundef align 8 dereferenceable_or_null(40) %20, i32 noundef %21)
  br label %22

22:                                               ; preds = %16
  %23 = load i32, ptr %5, align 4
  %24 = add i32 %23, 1
  store i32 %24, ptr %5, align 4
  br label %7, !llvm.loop !9

25:                                               ; preds = %15
  ret void
}