; Function Attrs: mustprogress null_pointer_is_valid sspstrong uwtable
define void @_ZN25BluetoothHciSummaryDialog18tableItemCollapsedEP15QTreeWidgetItem(ptr noundef readonly align 8 captures(none) dereferenceable_or_null(328) %0, ptr readnone captures(none) %1) #0 align 2 {
  %3 = getelementptr inbounds nuw i8, ptr %0, i64 144
  %4 = load ptr, ptr %3, align 8
  %5 = getelementptr inbounds nuw i8, ptr %4, i64 56
  %6 = load ptr, ptr %5, align 8
  %7 = tail call noundef i32 @_ZNK11QTreeWidget11columnCountEv(ptr noundef align 8 dereferenceable_or_null(40) %6)
  %8 = icmp sgt i32 %7, 0
  br i1 %8, label %.lr.ph, label %._crit_edge

._crit_edge:                                      ; preds = %.lr.ph, %2
  ret void

.lr.ph:                                           ; preds = %2, %.lr.ph
  %.03 = phi i32 [ %12, %.lr.ph ], [ 0, %2 ]
  %9 = load ptr, ptr %3, align 8
  %10 = getelementptr inbounds nuw i8, ptr %9, i64 56
  %11 = load ptr, ptr %10, align 8
  tail call void @_ZN9QTreeView22resizeColumnToContentsEi(ptr noundef align 8 dereferenceable_or_null(40) %11, i32 noundef %.03)
  %12 = add nuw nsw i32 %.03, 1
  %13 = load ptr, ptr %3, align 8
  %14 = getelementptr inbounds nuw i8, ptr %13, i64 56
  %15 = load ptr, ptr %14, align 8
  %16 = tail call noundef i32 @_ZNK11QTreeWidget11columnCountEv(ptr noundef align 8 dereferenceable_or_null(40) %15)
  %17 = icmp slt i32 %12, %16
  br i1 %17, label %.lr.ph, label %._crit_edge, !llvm.loop !36
}